target datalayout = "e-m:e-p270:32:32-p271:32:32-p272:64:64-i64:64-i128:128-f80:128-n8:16:32:64-S128"
target triple = "x86_64-pc-linux-gnu"

%struct.record_layer_st = type { ptr, ptr, ptr, ptr, ptr, ptr, ptr, ptr, i64, i32, i64, [4 x i8], i64, i64, i8, ptr, i32, ptr, ptr, ptr, i64, i64, i64, i64, [32 x %struct.tls_record_st] }
%struct.tls_record_st = type { ptr, i32, i8, ptr, ptr, i64, i64, i16, [8 x i8] }
%struct.dtls_record_layer_st = type { i16, i16, ptr }

@.str = private unnamed_addr constant [37 x i8] c"../openssl/ssl/record/rec_layer_d1.c\00", align 1

; Function Attrs: nounwind uwtable
define i32 @DTLS_RECORD_LAYER_new(ptr noundef %0) #0 {
  %2 = alloca i32, align 4
  %3 = alloca ptr, align 8
  %4 = alloca ptr, align 8
  %5 = alloca i32, align 4
  store ptr %0, ptr %3, align 8, !tbaa !3
  call void @llvm.lifetime.start.p0(i64 8, ptr %4) #7
  %6 = call noalias ptr @CRYPTO_malloc(i64 noundef 16, ptr noundef @.str, i32 noundef 24)
  store ptr %6, ptr %4, align 8, !tbaa !8
  %7 = icmp eq ptr %6, null
  br i1 %7, label %8, label %9

8:                                                ; preds = %1
  store i32 0, ptr %2, align 4
  store i32 1, ptr %5, align 4
  br label %25

9:                                                ; preds = %1
  %10 = load ptr, ptr %4, align 8, !tbaa !8
  %11 = load ptr, ptr %3, align 8, !tbaa !3
  %12 = getelementptr inbounds nuw %struct.record_layer_st, ptr %11, i32 0, i32 17
  store ptr %10, ptr %12, align 8, !tbaa !10
  %13 = call ptr @pqueue_new()
  %14 = load ptr, ptr %4, align 8, !tbaa !8
  %15 = getelementptr inbounds nuw %struct.dtls_record_layer_st, ptr %14, i32 0, i32 2
  store ptr %13, ptr %15, align 8, !tbaa !19
  %16 = load ptr, ptr %4, align 8, !tbaa !8
  %17 = getelementptr inbounds nuw %struct.dtls_record_layer_st, ptr %16, i32 0, i32 2
  %18 = load ptr, ptr %17, align 8, !tbaa !19
  %19 = icmp eq ptr %18, null
  br i1 %19, label %20, label %24

20:                                               ; preds = %9
  %21 = load ptr, ptr %4, align 8, !tbaa !8
  call void @CRYPTO_free(ptr noundef %21, ptr noundef @.str, i32 noundef 32)
  %22 = load ptr, ptr %3, align 8, !tbaa !3
  %23 = getelementptr inbounds nuw %struct.record_layer_st, ptr %22, i32 0, i32 17
  store ptr null, ptr %23, align 8, !tbaa !10
  store i32 0, ptr %2, align 4
  store i32 1, ptr %5, align 4
  br label %25

24:                                               ; preds = %9
  store i32 1, ptr %2, align 4
  store i32 1, ptr %5, align 4
  br label %25

25:                                               ; preds = %24, %20, %8
  call void @llvm.lifetime.end.p0(i64 8, ptr %4) #7
  %26 = load i32, ptr %2, align 4
  ret i32 %26
}