; Function Attrs: nounwind uwtable
define range(i32 0, 2) i32 @DTLS_RECORD_LAYER_new(ptr noundef writeonly captures(none) %0) local_unnamed_addr #0 {
  %2 = tail call noalias ptr @CRYPTO_malloc(i64 noundef 16, ptr noundef nonnull @.str, i32 noundef 24) #7
  %3 = icmp eq ptr %2, null
  br i1 %3, label %10, label %4

4:                                                ; preds = %1
  %5 = getelementptr inbounds nuw i8, ptr %0, i64 136
  store ptr %2, ptr %5, align 8, !tbaa !3
  %6 = tail call ptr @pqueue_new() #7
  %7 = getelementptr inbounds nuw i8, ptr %2, i64 8
  store ptr %6, ptr %7, align 8, !tbaa !16
  %8 = icmp eq ptr %6, null
  br i1 %8, label %9, label %10

9:                                                ; preds = %4
  tail call void @CRYPTO_free(ptr noundef nonnull %2, ptr noundef nonnull @.str, i32 noundef 32) #7
  store ptr null, ptr %5, align 8, !tbaa !3
  br label %10

10:                                               ; preds = %4, %1, %9
  %.0 = phi i32 [ 0, %9 ], [ 0, %1 ], [ 1, %4 ]
  ret i32 %.0
}